(dp0
Vtagprogress
p1
(dp2
S'/home/josie/trans'
p3
(lp4
S"/home/josie/trans/music/'68/In Humor and Sadness"
p5
aS'/home/josie/trans/music/+44/When Your Heart Stops Beating'
p6
aS'/home/josie/trans/music/A Day to Remember/Attack of the Killer B-Sides'
p7
aS'/home/josie/trans/music/A Day to Remember/Common Courtesy'
p8
aS'/home/josie/trans/music/A Day to Remember/For Those Who Have Heart'
p9
aS'/home/josie/trans/music/A Day to Remember/Homesick'
p10
asS'/tmp/tmpWLQQDa'
p11
(lp12
S'/tmp/tmpWLQQDa/Alex G - Witch'
p13
asS'/tmp/tmpNCHYxq'
p14
(lp15
S'/tmp/tmpNCHYxq/Alex G - Bobby'
p16
asS'/tmp/tmpJxbC5I'
p17
(lp18
S'/tmp/tmpJxbC5I/IV - EP'
p19
asS'/tmp/tmp3agqrV'
p20
(lp21
S'/tmp/tmp3agqrV/The Menzingers - After The Party (2017)'
p22
assVtaghistory
p23
c__builtin__
set
p24
((lp25
(S'/home/josie/trans/music/Pinegrove/Everything So Far'
p26
tp27
a(S'/home/josie/trans/music/Killswitch Engage/The End of Heartache'
p28
tp29
a(S'/home/josie/trans/music/Run the Jewels/Run the Jewels'
p30
tp31
a(S'/home/josie/trans/music/Fall Out Boy/From Under the Cork Tree'
p32
tp33
a(S'/home/josie/trans/music/Crime in Stereo/Is Dead'
p34
tp35
a(S'/home/josie/trans/music/Compilations/Touch Amor_Title Fight Split 7_'
p36
tp37
a(S'/home/josie/trans/music/Polar Bear Club/Off The Board'
p38
tp39
a(S'/home/josie/downloads/hazel_english/Hazel English - Fix.mp3'
p40
tp41
a(S"/home/josie/trans/music/Bring Me the Horizon/There Is a Hell, Believe Me I've Seen It. There Is a Heaven, Let's Keep It a Secret"
p42
tp43
a(S'/home/josie/trans/music/JANK/Awkward Pop Songs'
p44
tp45
a(S'/home/josie/trans/music/Jimmy Eat World/Clarity'
p46
tp47
a(S'/home/josie/trans/music/Pity Sex/Dark World'
p48
tp49
a(S'/home/josie/downloads/torrents/The Magnetic Fields - 69 Love Songs/03. 69 Love Songs - Volume Three'
p50
tp51
a(S'/home/josie/trans/music/While She Sleeps/This Is the Six'
p52
tp53
a(S'/home/josie/trans/music/Defeater/Empty Days & Sleepless Nights'
p54
tp55
a(S'/home/josie/trans/music/Newmoon/Invitation to Hold'
p56
tp57
a(S'/home/josie/trans/music/A Day to Remember/Attack of the Killer B-Sides'
p58
tp59
a(S'/home/josie/trans/music/Nouns/Still'
p60
tp61
a(S'/home/josie/trans/music/Pierce the Veil'
p62
tp63
a(S'/home/josie/trans/music/Dream on, Dreamer/Hope'
p64
tp65
a(S'/home/josie/trans/music/Koji/Off The Board'
p66
tp67
a(S'/home/josie/trans/music/Rise Against/Siren Song of the Counter Culture'
p68
tp69
a(S'/home/josie/trans/music/Parquet Courts/Light Up Gold'
p70
tp71
a(S'/home/josie/trans/music/Make Do And Mend/Mixed Signals'
p72
tp73
a(S'/home/josie/trans/music/Non-Album/Listener'
p74
tp75
a(S'/home/josie/trans/music/Joyce Manor/Joyce Manor'
p76
tp77
a(S'/home/josie/the-menzingers/lookers'
p78
tp79
a(S'/home/josie/trans/music/Brand New _ Safety in Numbers/Brand New _ Safety in Numbers 97'
p80
tp81
a(S'/home/josie/trans/music/Yellowcard/Ocean Avenue'
p82
tp83
a(S'/home/josie/trans/music/Silverstein/A Shipwreck in the Sand'
p84
tp85
a(S'/home/josie/trans/music/Funeral for a Friend/Hours'
p86
tp87
a(S'/home/josie/trans/music/Tigers Jaw/Tigers Jaw'
p88
tp89
a(S'/home/josie/trans/music/Touch Amor/Parting the Sea Between Brightness and Me'
p90
tp91
a(S'/home/josie/trans/music/Modern Life Is War/Modern Life Is War'
p92
tp93
a(S'/home/josie/trans/music/Defeater/Lost Ground'
p94
tp95
a(S'/home/josie/trans/music/Special Explosion/The Art of Mothering'
p96
tp97
a(S'/home/josie/trans/music/Death Grips/The Money Store'
p98
tp99
a(S'/home/josie/trans/music/PUP/Unknown Album'
p100
tp101
a(S'/tmp/tmp62aLmC/Joyce Manor - Cody (2016)'
p102
tp103
a(S'/home/josie/trans/music/Christie Front Drive/Anthology'
p104
tp105
a(S'/home/josie/trans/music/Saves the Day/Stay What You Are'
p106
tp107
a(S'/home/josie/trans/music/Tigers Jaw/Charmer'
p108
tp109
a(S'/home/josie/trans/music/Death Grips/Exmilitary'
p110
tp111
a(S'/home/josie/trans/music/Prawn/Split'
p112
tp113
a(S'/home/josie/trans/music/Rise Against/Appeal to Reason'
p114
tp115
a(S'/home/josie/trans/music/The Chariot/Unsung EP'
p116
tp117
a(S'/home/josie/trans/music/blink182/Enema of the State'
p118
tp119
a(S'/home/josie/trans/music/The Chariot/Everything Is Alive, Everything Is Breathing, Nothing Is Dead and Nothing Is Bleeding'
p120
tp121
a(S'/home/josie/trans/music/Hop Along/Get Disowned'
p122
tp123
a(S'/home/josie/trans/music/The Jesus and Mary Chain/Psychocandy'
p124
tp125
a(S'/home/josie/trans/music/The Front Bottoms/The Front Bottoms'
p126
tp127
a(S'/home/josie/trans/music/Petal/Scout'
p128
tp129
a(S'/home/josie/trans/music/Rise Against/Revolutions Per Minute'
p130
tp131
a(S'/home/josie/trans/music/Bring Me the Horizon/It Never Ends'
p132
tp133
a(S'/home/josie/trans/music/La Dispute _ Koji/Never Come Undone'
p134
tp135
a(S'/home/josie/trans/music/Citizen/Young States'
p136
tp137
a(S'/home/josie/trans/music/Haste the Day/Dreamer'
p138
tp139
a(S'/home/josie/trans/music/Tigers Jaw/Two Worlds'
p140
tp141
a(S'/home/josie/trans/music/Ratboys/AOID'
p142
tp143
a(S'/home/josie/trans/music/Sleeping with Sirens/With Ears to See and Eyes to Hear'
p144
tp145
a(S'/home/josie/trans/music/The Mongoloids/Off The Board'
p146
tp147
a(S'/home/josie/trans/music/Gleemer/No Goodbyes'
p148
tp149
a(S'/home/josie/trans/music/Dikembe/Mediumship'
p150
tp151
a(S'/home/josie/trans/music/Choir Vandals/Darker Things'
p152
tp153
a(S'/home/josie/trans/music/Slothrust/Of Course You Do'
p154
tp155
a(S'/home/josie/trans/music/blink182/Dude Ranch'
p156
tp157
a(S'/home/josie/trans/music/Braid/Split'
p158
tp159
a(S'/home/josie/trans/music/Non-Album/The Story So Far'
p160
tp161
a(S'/home/josie/trans/music/Sum 41/Chuck (bonus disc)'
p162
tp163
a(S"/home/josie/trans/music/We Came as Romans/Understanding What We've Grown to Be"
p164
tp165
a(S'/home/josie/downloads/victor-shores/youll-get-better-at-it'
p166
tp167
a(S'/home/josie/trans/music/Earl Sweatshirt/I Dont Like Shit, I Dont Go Outside_ An Album by Earl Sweatshirt'
p168
tp169
a(S'/home/josie/trans/music/PUP/Pup'
p170
tp171
a(S'/home/josie/Love$ick (Mumdance Remix).mp3'
p172
tp173
a(S"/home/josie/downloads/hazel_english/Hazel English - I'm Fine.mp3"
p174
tp175
a(S'/home/josie/trans/music/Drop Dead, Gorgeous/In Vogue'
p176
tp177
a(S'/home/josie/trans/music/The Republic Of Wolves/No Matter How Narrow'
p178
tp179
a(S'/home/josie/trans/music/Warm Thoughts/Warm Thoughts _ The Exquisites Split 7_'
p180
tp181
a(S'/home/josie/trans/music/The Menzingers/Rented World'
p182
tp183
a(S'/home/josie/trans/music/Wolves & Machines/Ailments'
p184
tp185
a(S'/home/josie/trans/music/Funeral for a Friend/Between Order and Model'
p186
tp187
a(S'/home/josie/trans/music/Looming/Nailbiter'
p188
tp189
a(S'/home/josie/downloads/pup/the-dream-is-over'
p190
tp191
a(S'/home/josie/trans/music/Souvenirs/You Fear And Me'
p192
tp193
a(S'/home/josie/trans/music/Underoath/Cries of the Past'
p194
tp195
a(S'/tmp/tmp5O5oeK/Brand New - I Am A Nightmare (2016)'
p196
tp197
a(S'/home/josie/trans/music/Deafheaven/New Bermuda'
p198
tp199
a(S'/home/josie/trans/music/Hopes Die Last/Six Years Home'
p200
tp201
a(S"/home/josie/trans/music/The Smiths/The World Won't Listen"
p202
tp203
a(S'/home/josie/trans/music/Pianos Become the Teeth/The Lack Long After'
p204
tp205
a(S'/home/josie/remo-drive/greatest-hits'
p206
tp207
a(S'/home/josie/trans/music/Pedro the Lion/Control'
p208
tp209
a(S'/home/josie/trans/music/Underoath/Lost in the Sound of Separation'
p210
tp211
a(S'/home/josie/trans/music/Whirr/Distressor'
p212
tp213
a(S'/home/josie/trans/music/Funeral for a Friend/Final Hours at Hammersmith'
p214
tp215
a(S"/home/josie/trans/music/Eerie Summer/the way i don't understand anything anymore"
p216
tp217
a(S'/home/josie/trans/music/Turnover/Peripheral Vision'
p218
tp219
a(S'/home/josie/downloads/hazel_english/Hazel English -  Make It Better.mp3'
p220
tp221
a(S'/home/josie/trans/music/Hostage Calm/Mixed Signals'
p222
tp223
a(S'/home/josie/trans/music/La Dispute/Here, Hear, Volume 3'
p224
tp225
a(S'/home/josie/trans/music/La Dispute/Never Come Undone'
p226
tp227
a(S'/home/josie/trans/music/Fazerdaze/Fazerdaze EP'
p228
tp229
a(S'/home/josie/trans/music/Joie De Virve/Split'
p230
tp231
a(S"/home/josie/downloads/hazel_english/Hazel English - It's Not Real.mp3"
p232
tp233
a(S'/home/josie/trans/music/Elvis Depressedly/New Alhambra'
p234
tp235
a(S'/home/josie/trans/music/The Front Bottoms/Talon of the Hawk'
p236
tp237
a(S'/home/josie/trans/music/Greeley Estates/Outside of This'
p238
tp239
a(S'/home/josie/trans/music/Whirr/Pipe Dreams'
p240
tp241
a(S"/home/josie/trans/music/The Bunny The Bear/If You Don't Have Anything Nice to Say.._"
p242
tp243
a(S'/home/josie/downloads/torrents/The Magnetic Fields - 69 Love Songs/02. 69 Love Songs - Volume Two'
p244
tp245
a(S'/home/josie/trans/music/Dance Gavin Dance/Happiness'
p246
tp247
a(S'/tmp/tmpWLQQDa/Alex G - Witch'
p248
tp249
a(S'/home/josie/trans/music/Nothing/Tired of Tomorrow'
p250
tp251
a(S'/home/josie/trans/music/Dead End Path/Off The Board'
p252
tp253
a(S'/home/josie/downloads/protomartyr'
p254
tp255
a(S'/home/josie/trans/music/Kendrick Lamar/good kid, m.A.A.d city'
p256
tp257
a(S'/home/josie/trans/music/You Blew It!/Grow Up, Dude'
p258
tp259
a(S'/home/josie/trans/music/Taking Back Sunday/Tell All Your Friends'
p260
tp261
a(S'/home/josie/trans/music/Grown Ups/More Songs'
p262
tp263
a(S'/tmp/tmp3agqrV/The Menzingers - After The Party (2017)'
p264
tp265
a(S'/home/josie/no-better/forget-me-not'
p266
tp267
a(S'/home/josie/it-looks-sad/self-titled'
p268
tp269
a(S'/home/josie/trans/music/The Hotelier/Goodness'
p270
tp271
a(S'/home/josie/trans/music/The Color Morale/We All Have Demons'
p272
tp273
a(S'/home/josie/trans/music/Brand New/Leaked Demos 2006'
p274
tp275
a(S'/home/josie/trans/music/Speedy Ortiz/Foil Deer'
p276
tp277
a(S'/home/josie/downloads/all-get-out/movement'
p278
tp279
a(S'/home/josie/trans/music/Public Enemy/It Takes a Nation of Millions to Hold Us Back'
p280
tp281
a(S'/home/josie/trans/music/Compilations/IIOI KOJI'
p282
tp283
a(S"/home/josie/trans/music/The Story So Far/What You Don't See"
p284
tp285
a(S'/home/josie/trans/music/Death Cab for Cutie/Plans'
p286
tp287
a(S'/home/josie/trans/music/Bring Me the Horizon/Count Your Blessings'
p288
tp289
a(S'/home/josie/torrents/Big Thief - Masterpiece (2016) [320]'
p290
tp291
a(S"/home/josie/trans/music/Dad Punchers/These Times Weren't Made For You"
p292
tp293
a(S'/home/josie/trans/music/Modern Baseball/Holy Ghost'
p294
tp295
a(S'/home/josie/trans/music/Touch Amor/To the Beat of a Dead Horse'
p296
tp297
a(S"/home/josie/trans/music/I'm Glad It's You/June"
p298
tp299
a(S'/home/josie/trans/music/Four Year Strong/In Some Way, Shape, or Form'
p300
tp301
a(S'/home/josie/downloads/women'
p302
tp303
a(S'/home/josie/trans/music/Hop Along/Painted Shut'
p304
tp305
a(S'/home/josie/trans/music/Forth Wanderers/Tough Love'
p306
tp307
a(S'/home/josie/trans/music/Pinegrove/Cardinal'
p308
tp309
a(S'/home/josie/trans/music/State Faults/Desolate Peaks'
p310
tp311
a(S'/home/josie/trans/music/Superheaven/Jar'
p312
tp313
a(S'/home/josie/trans/music/The Chariot/One Wing'
p314
tp315
a(S'/home/josie/trans/music/Seahaven/Ghost'
p316
tp317
a(S'/tmp/tmpW2BkUe/Either_Or'
p318
tp319
a(S'/home/josie/trans/music/Brand New/The Devil and God Are Raging Inside Me'
p320
tp321
a(S'/home/josie/trans/music/La Dispute/Somewhere at the Bottom of the River Between Vega and Altair'
p322
tp323
a(S'/home/josie/trans/music/Pierce the Veil/Collide with the Sky'
p324
tp325
a(S'/home/josie/trans/music/Whirr/Black Island'
p326
tp327
a(S'/home/josie/trans/music/Red Hot Chili Peppers/Stadium Arcadium'
p328
tp329
a(S"/home/josie/trans/music/The Wonder Years/Suburbia I've Given You All and Now I'm Nothing"
p330
tp331
a(S'/home/josie/trans/music/Touch Amor _ Pianos Become the Teeth/Touch Amor _ Pianos Become the Teeth'
p332
tp333
a(S'/home/josie/trans/music/The Microphones/The Glow, Part 2'
p334
tp335
a(S'/home/josie/trans/music/Circa Survive/Off The Board'
p336
tp337
a(S'/home/josie/trans/music/Bring Me the Horizon/This Is What the Edge of Your Seat Was Made For'
p338
tp339
a(S'/home/josie/trans/music/The Wonder Years/The Upsides'
p340
tp341
a(S'/home/josie/trans/music/Explosions in the Sky/The Earth Is Not a Cold Dead Place'
p342
tp343
a(S'/home/josie/trans/music/The Menzingers/Chamberlain Waits'
p344
tp345
a(S'/home/josie/trans/music/Burden of a Day/OneOneThousand'
p346
tp347
a(S'/home/josie/trans/music/Somos/First Day Back'
p348
tp349
a(S'/home/josie/trans/music/Funeral for a Friend/Seven Ways to Scream Your Name'
p350
tp351
a(S'/home/josie/trans/music/gates/Parallel Lives'
p352
tp353
a(S'/home/josie/trans/music/Hesitation Wounds/Self Titled'
p354
tp355
a(S'/home/josie/trans/music/The Wonder Years/The Greatest Generation'
p356
tp357
a(S'/home/josie/trans/music/I the Mighty/Karma Never Sleeps'
p358
tp359
a(S'/home/josie/trans/music/Motion City Soundtrack/Go'
p360
tp361
a(S'/home/josie/trans/music/Single Mothers/S_T'
p362
tp363
a(S'/home/josie/trans/music/Joey Bada$$/1999'
p364
tp365
a(S'/home/josie/trans/music/Title Fight/The Last Thing You Forget'
p366
tp367
a(S'/home/josie/trans/music/Native/Wrestling Moves'
p368
tp369
a(S'/home/josie/trans/music/Saosin/In Search of Solid Ground'
p370
tp371
a(S'/home/josie/ceres/drag-it-down-on-you'
p372
tp373
a(S"/home/josie/downloads/hazel_english/I'm Fine.mp3"
p374
tp375
a(S'/home/josie/trans/music/Summer Vacation _ Joyce Manor/Summer Vacation _ Joyce Manor'
p376
tp377
a(S'/home/josie/trans/music/Citizen/Off The Board'
p378
tp379
a(S'/home/josie/trans/music/Weezer/Weezer (White Album)'
p380
tp381
a(S'/home/josie/trans/music/Perspective, a lovely hand to hold/Autonomy'
p382
tp383
a(S'/home/josie/trans/music/Frameworks/Time Spent'
p384
tp385
a(S'/home/josie/trans/music/The Wonder Years/Get Stoked on It!'
p386
tp387
a(S'/home/josie/trans/music/The Stoop/Feeding Time at the Zoo'
p388
tp389
a(S'/home/josie/trans/music/Make Do and Mend _ Touch Amor/Make Do and Mend _ Touch Amor'
p390
tp391
a(S'/home/josie/trans/music/Now, Now/Threads'
p392
tp393
a(S'/home/josie/trans/music/blink182/Buddha'
p394
tp395
a(S'/home/josie/downloads/the_men/leave_home'
p396
tp397
a(S'/home/josie/downloads/cloud-nothings/life-without-sound'
p398
tp399
a(S'/home/josie/trans/music/Hey Mercedes/Loses Control'
p400
tp401
a(S'/home/josie/trans/music/The Early November/Imbue'
p402
tp403
a(S'/home/josie/trans/music/Brand New _ Safety in Numbers/Brand New _ Safety in Numbers 96'
p404
tp405
a(S'/home/josie/downloads/the_men/immaculada'
p406
tp407
a(S'/home/josie/downloads/new_order'
p408
tp409
a(S'/home/josie/trans/music/Funeral for a Friend/The Great Wide Open'
p410
tp411
a(S'/home/josie/trans/music/Minus the Bear/Menos el oso'
p412
tp413
a(S'/home/josie/trans/music/Brand New/Deja Entendu'
p414
tp415
a(S'/home/josie/trans/music/Sufjan Stevens/Carrie & Lowell'
p416
tp417
a(S'/home/josie/trans/music/Marietta/As It Were'
p418
tp419
a(S'/home/josie/trans/music/blink182/blink182'
p420
tp421
a(S'/home/josie/trans/music/Sum 41/Half Hour of Power'
p422
tp423
a(S'/home/josie/trans/music/Turnover/Turnover'
p424
tp425
a(S'/home/josie/trans/music/Bright Eyes/Lifted or The Story Is in the Soil, Keep Your Ear to the Ground'
p426
tp427
a(S'/home/josie/trans/music/Modern Life Is War/My Love. My Way_'
p428
tp429
a(S'/home/josie/trans/music/CLIQUE/CLIQUE'
p430
tp431
a(S'/home/josie/the-football-club/this-isnt-who-i-am-girlcrush'
p432
tp433
a(S'/home/josie/trans/music/Minus the Bear/Planet of Ice'
p434
tp435
a(S'/home/josie/trans/music/Circa Survive/Blue Sky Noise'
p436
tp437
a(S'/home/josie/trans/music/The 1975/I like it when you sleep, for you are so beautiful yet so unaware of it'
p438
tp439
a(S'/home/josie/downloads/lvl-up/return-to-love'
p440
tp441
a(S'/home/josie/marching-church/this-world-is-not-enough'
p442
tp443
a(S'/home/josie/trans/music/Grandview/Everything Between Paint and a Wall'
p444
tp445
a(S'/home/josie/downloads/banner-pilot/souvenir'
p446
tp447
a(S'/home/josie/trans/music/Viet Cong/Viet Cong'
p448
tp449
a(S'/home/josie/trans/music/Frameworks/Loom'
p450
tp451
a(S'/home/josie/trans/music/Daisyhead/The Smallest Light'
p452
tp453
a(S'/home/josie/trans/music/Lowell/We Loved Her Dearly'
p454
tp455
a(S'/home/josie/trans/music/Tigers Jaw/Off The Board'
p456
tp457
a(S'/home/josie/trans/music/Koji/Crooked In My Mind'
p458
tp459
a(S'/home/josie/trans/music/The Menzingers/On the Impossible Past'
p460
tp461
a(S'/home/josie/trans/music/Mansions/Doom Loop'
p462
tp463
a(S'/home/josie/downloads/tpobpof'
p464
tp465
a(S'/home/josie/trans/music/Daylight/Mixed Signals'
p466
tp467
a(S'/home/josie/trans/music/Cloud Nothings/Here and Nowhere Else'
p468
tp469
a(S'/home/josie/trans/music/Big Kids/Hoop Dreams'
p470
tp471
a(S'/home/josie/trans/music/Royal Headache/Royal Headache'
p472
tp473
a(S'/home/josie/trans/music/We Are Defiance/Trust in Few'
p474
tp475
a(S'/home/josie/trans/music/Polar Bear Club/Mixed Signals'
p476
tp477
a(S'/home/josie/trans/music/Seahaven/Reverie Lagoon_ Music for Escapism Only'
p478
tp479
a(S'/home/josie/trans/music/Nai Harvest/Hold Open My Head'
p480
tp481
a(S'/home/josie/trans/music/Wavves/Afraid of Heights'
p482
tp483
a(S'/home/josie/trans/music/Rise Against/The Unraveling'
p484
tp485
a(S'/home/josie/trans/music/Haste the Day/Pressure the Hinges'
p486
tp487
a(S'/home/josie/preoccupations/preoccupations'
p488
tp489
a(S'/home/josie/trans/music/blink182/Neighborhoods'
p490
tp491
a(S'/home/josie/trans/music/Title Fight/Shed'
p492
tp493
a(S'/home/josie/trans/music/The Sidekicks/Awkward Breeds'
p494
tp495
a(S'/home/josie/trans/music/Fog Lake/Victoria Park'
p496
tp497
a(S'/home/josie/trans/music/Say Anything/Is a Real Boy'
p498
tp499
a(S'/home/josie/trans/music/A Day to Remember/For Those Who Have Heart'
p500
tp501
a(S'/home/josie/trans/music/Killer Mike/R.A.P. Music'
p502
tp503
a(S'/home/josie/trans/music/Our Last Night/We Will All Evolve'
p504
tp505
a(S'/home/josie/brand-new/mene'
p506
tp507
a(S'/home/josie/trans/music/Underoath/Act of Depression'
p508
tp509
a(S'/home/josie/trans/music/Listener/Time Is a Machine'
p510
tp511
a(S'/home/josie/trans/music/MGMT/Oracular Spectacular'
p512
tp513
a(S'/home/josie/trans/music/Daylight/Off The Board'
p514
tp515
a(S'/home/josie/trans/music/Pianos Become the Teeth/Keep You'
p516
tp517
a(S'/home/josie/trans/music/The Dillinger Escape Plan/One of Us Is the Killer'
p518
tp519
a(S'/home/josie/trans/music/Greeley Estates/Go West Young Man, Let the Evil Go East'
p520
tp521
a(S'/home/josie/trans/music/The Devil Wears Prada/With Roots Above and Branches Below'
p522
tp523
a(S'/home/josie/trans/music/Frankie Cosmos/Zentropy'
p524
tp525
a(S"/home/josie/trans/music/Moose Blood/I'll Keep You In Mind, From Time To Time"
p526
tp527
a(S'/home/josie/trans/music/The Chariot/Wars and Rumors of Wars'
p528
tp529
a(S'/home/josie/trans/music/Polar Bear Club/Sometimes Things Just Disappear'
p530
tp531
a(S'/home/josie/trans/music/Elvis Depressedly/Holo Pleasures'
p532
tp533
a(S'/home/josie/trans/music/Dad Punchers/Dad Punchers'
p534
tp535
a(S'/home/josie/trans/music/Set Your Goals/This Will Be the Death of Us'
p536
tp537
a(S'/home/josie/trans/music/Title Fight/Light Up The Eyes'
p538
tp539
a(S'/home/josie/trans/music/Man Overboard/Man Overboard'
p540
tp541
a(S'/home/josie/trans/music/Misfits/Walk Among Us'
p542
tp543
a(S'/home/josie/trans/music/letlive_/Fake History'
p544
tp545
a(S'/home/josie/trans/music/Touch Amor _ La Dispute/Searching for a Pulse_The Worth of the World'
p546
tp547
a(S"/home/josie/trans/music/Compilations/No Sleep 'Till Christmas"
p548
tp549
a(S'/home/josie/trans/music/Runaway Brother/Mother'
p550
tp551
a(S'/home/josie/trans/music/Julien Baker/Sprained Ankle'
p552
tp553
a(S'/home/josie/trans/music/Ratboys/Unknown Album'
p554
tp555
a(S'/home/josie/trans/music/Paddock Park/A Hiding Place for Fake Friends'
p556
tp557
a(S"/home/josie/trans/music/I Set My Friends on Fire/You Can't Spell Slaughter Without Laughter"
p558
tp559
a(S'/home/josie/trans/music/Forever Came Calling/Contender'
p560
tp561
a(S'/home/josie/trans/music/Woe, Is Me/Number[s]'
p562
tp563
a(S'/home/josie/trans/music/Rise Against/The Sufferer & the Witness'
p564
tp565
a(S'/home/josie/trans/music/Solids/Blame Confusion'
p566
tp567
a(S'/tmp/tmpqtSEWX'
p568
tp569
a(S'/home/josie/trans/music/Modern Life Is War/Witness'
p570
tp571
a(S'/home/josie/trans/music/Citizen/The Only Place I Know Split EP'
p572
tp573
a(S'/home/josie/trans/music/Such Gold/Misadventures'
p574
tp575
a(S'/home/josie/trans/music/Tony Molina/Dissed and Dismissed'
p576
tp577
a(S'/home/josie/torrents/Mitski - Puberty 2 (2016)'
p578
tp579
a(S'/home/josie/trans/music/Captain, Were Sinking/Its a Trap!'
p580
tp581
a(S'/home/josie/trans/music/Of Mice & Men/Of Mice & Men'
p582
tp583
a(S'/home/josie/trans/music/Man Overboard/Real Talk'
p584
tp585
a(S'/home/josie/trans/music/Misfits/Static Age'
p586
tp587
a(S'/home/josie/trans/music/You Blew It!/Keep Doing What Youre Doing'
p588
tp589
a(S'/home/josie/trans/music/Have Mercy/The Earth Pushed Back'
p590
tp591
a(S'/home/josie/trans/music/Real Friends/Everyone That Dragged You Here'
p592
tp593
a(S'/home/josie/trans/music/The Chariot/Long Live'
p594
tp595
a(S'/home/josie/trans/music/Boxcar Racer/Boxcar Racer'
p596
tp597
a(S'/home/josie/trans/music/Make Do And Mend/Everything You Ever Loved'
p598
tp599
a(S'/home/josie/trans/music/The National/Trouble Will Find Me'
p600
tp601
a(S'/home/josie/trans/music/Donovan Wolfington/Stop Breathing'
p602
tp603
a(S'/home/josie/trans/music/Haste the Day/When Everything Falls'
p604
tp605
a(S'/home/josie/trans/music/Four Year Strong/Enemy of the World'
p606
tp607
a(S'/home/josie/downloads/theveils'
p608
tp609
a(S'/home/josie/trans/music/Our Last Night/The Ghosts Among Us'
p610
tp611
a(S'/home/josie/trans/music/Neutral Milk Hotel/In the Aeroplane Over the Sea'
p612
tp613
a(S'/home/josie/trans/music/Nouns/Still Bummed'
p614
tp615
a(S'/home/josie/trans/music/Seahaven/Winter Forever'
p616
tp617
a(S'/home/josie/trans/music/Funeral for a Friend/Four Ways to Scream Your Name'
p618
tp619
a(S'/home/josie/trans/music/Haste the Day/That They May Know You'
p620
tp621
a(S'/home/josie/trans/music/Set Your Goals/Mutiny!'
p622
tp623
a(S'/home/josie/trans/music/Modern Baseball/MoBo Presents_ The Perfect Cast EP Featuring Modern Baseball'
p624
tp625
a(S'/home/josie/trans/music/Knapsack/This Conversation is Ending Starting Right Now'
p626
tp627
a(S'/home/josie/trans/music/Nai Harvest/Whatever'
p628
tp629
a(S'/home/josie/trans/music/Snowing/Fuck Your Emotional Bullshit'
p630
tp631
a(S'/home/josie/trans/music/Brand New/Your Favorite Weapon'
p632
tp633
a(S'/home/josie/trans/music/Echosmith/Talking Dreams'
p634
tp635
a(S'/home/josie/trans/music/The Wonder Years/Split Tracks'
p636
tp637
a(S'/home/josie/trans/music/La Dispute/Rooms of the House'
p638
tp639
a(S'/home/josie/trans/music/Various Artists/Touch Amor_Title Fight Split 7_'
p640
tp641
a(S'/home/josie/trans/music/Frameworks/Small Victories'
p642
tp643
a(S'/home/josie/trans/music/Rites of Spring/Rites of Spring'
p644
tp645
a(S'/home/josie/trans/music/Desire/Drive'
p646
tp647
a(S'/home/josie/downloads/daniel-johnston'
p648
tp649
a(S'/home/josie/trans/music/Joyce Manor/Constant Headache'
p650
tp651
a(S'/home/josie/downloads/hazel_english/Hazel English - Never Going Home.mp3'
p652
tp653
a(S'/home/josie/trans/music/The Hotelier/It Never Goes Out'
p654
tp655
a(S'/home/josie/trans/music/Pierce the Veil/A Flair for the Dramatic'
p656
tp657
a(S"/home/josie/trans/music/'68/In Humor and Sadness"
p658
tp659
a(S'/home/josie/trans/music/Yellowcard/Southern Air'
p660
tp661
a(S'/home/josie/trans/music/William Bonney/All Our Songs'
p662
tp663
a(S'/home/josie/trans/music/Sum 41/Screaming Bloody Murder'
p664
tp665
a(S'/home/josie/trans/music/Title Fight/Off The Board'
p666
tp667
a(S'/home/josie/trans/music/Prawn/Kingfisher'
p668
tp669
a(S'/home/josie/trans/music/Sorority Noise/Joy, Departed'
p670
tp671
a(S'/home/josie/trans/music/Man Overboard/Off The Board'
p672
tp673
a(S'/home/josie/trans/music/Into It. Over It_/Intersections'
p674
tp675
a(S'/home/josie/trans/music/Told Slant/Going By'
p676
tp677
a(S'/home/josie/trans/music/In Fear and Faith/Imperial'
p678
tp679
a(S'/home/josie/trans/music/Rise Against/Endgame'
p680
tp681
a(S'/home/josie/trans/music/La Dispute/Wildlife'
p682
tp683
a(S'/home/josie/trans/music/Title Fight/Floral Green'
p684
tp685
a(S'/home/josie/trans/music/Into It. Over It_/Proper'
p686
tp687
a(S'/home/josie/trans/music/Real Estate/Days'
p688
tp689
a(S'/home/josie/trans/music/FIDLAR/FIDLAR'
p690
tp691
a(S'/home/josie/ceres/i-dont-want-to-be-anywhere-but-here'
p692
tp693
a(S'/home/josie/trans/music/Koalacaust/Koalacaust'
p694
tp695
a(S'/home/josie/trans/music/Pity Sex/Off The Board'
p696
tp697
a(S'/home/josie/trans/music/The Chariot/Goldman Demo 2004'
p698
tp699
a(S'/home/josie/trans/music/Pity Sex/White Hot Moon'
p700
tp701
a(S'/home/josie/trans/music/I Hate Sex/Circle Thinking'
p702
tp703
a(S'/home/josie/trans/music/Drop Dead, Gorgeous/Be Mine, Valentine'
p704
tp705
a(S'/home/josie/What If I Go.mp3'
p706
tp707
a(S'/home/josie/trans/music/blink182/blink182 [2004]'
p708
tp709
a(S'/home/josie/trans/music/Non-Album/Senses Fail'
p710
tp711
a(S'/home/josie/trans/music/Wild Trees/`'
p712
tp713
a(S'/home/josie/downloads/im-glad-its-you/the-things-i-never-say'
p714
tp715
a(S'/home/josie/brand-new/3-demos-reworked'
p716
tp717
a(S'/home/josie/trans/music/Fog Lake/holy cross'
p718
tp719
a(S'/home/josie/trans/music/Frameworks/Smother'
p720
tp721
a(S'/home/josie/marching-church/telling-it-like-it-is'
p722
tp723
a(S'/home/josie/trans/music/Lostprophets/Liberation Transmission'
p724
tp725
a(S'/home/josie/trans/music/Brand New _ Safety in Numbers/Brand New _ Safety in Numbers'
p726
tp727
a(S'/home/josie/trans/music/The 1975/The 1975'
p728
tp729
a(S'/tmp/tmpdVbM3I/Touche\xcc\x81 Amore\xcc\x81 - Stage Four (2016)'
p730
tp731
a(S'/home/josie/trans/music/A Day to Remember/Common Courtesy'
p732
tp733
a(S'/home/josie/trans/music/Duster/Stratosphere'
p734
tp735
a(S'/home/josie/brave-bird/t-minus-grand-gesture'
p736
tp737
a(S'/home/josie/downloads/torrents/Car Seat Headrest/Teens of Denial'
p738
tp739
a(S'/home/josie/trans/music/Porches/Pool'
p740
tp741
a(S'/home/josie/trans/music/The World Is A Beautiful Place And I Am No Longer Afraid To Die/Mixed Signals'
p742
tp743
a(S'/home/josie/trans/music/Thrice/To Be Everywhere Is to Be Nowhere'
p744
tp745
a(S'/home/josie/trans/music/Transit/Listen & Forgive'
p746
tp747
a(S'/home/josie/trans/music/Memphis May Fire/Memphis May Fire'
p748
tp749
a(S'/home/josie/trans/music/Touch Amor/Is Survived By'
p750
tp751
a(S'/home/josie/trans/music/La Dispute/Untitled 7_'
p752
tp753
a(S'/tmp/tmpJxbC5I/IV - EP'
p754
tp755
a(S"/home/josie/trans/music/Dowsing/It's Still Pretty Terrible"
p756
tp757
a(S'/home/josie/trans/music/Fall Out Boy/Take This to Your Grave'
p758
tp759
a(S"/home/josie/trans/music/Capn Jazz/Burritos, Inspiration Point, Fork Balloon Sports, Cards in the Spokes, Automatic Biographies, Kites, Kung Fu, Trophies, Banana Peels We've Slipped on and Egg Shells We've Tippy Toed Over"
p760
tp761
a(S'/home/josie/trans/music/Crass/The Feeding of the 5000'
p762
tp763
a(S'/home/josie/trans/music/Burden of a Day/Pilots & Paper Planes'
p764
tp765
a(S'/home/josie/trans/music/Yellowcard/When Youre Through Thinking, Say Yes'
p766
tp767
a(S'/home/josie/trans/music/Dance Gavin Dance/Dance Gavin Dance'
p768
tp769
a(S'/home/josie/trans/music/Underoath/Define the Great Line'
p770
tp771
a(S'/home/josie/trans/music/Title Fight/Hyperview'
p772
tp773
a(S'/home/josie/trans/music/Neck Deep/Rain in July'
p774
tp775
a(S"/home/josie/downloads/hazel_english/It's Not Real.mp3"
p776
tp777
a(S'/home/josie/trans/music/Funeral for a Friend/Spilling Blood in 8mm'
p778
tp779
a(S'/home/josie/trans/music/Signals Midwest/Light On The Lake'
p780
tp781
a(S'/home/josie/trans/music/Joyce Manor/Demo'
p782
tp783
a(S'/home/josie/torrents/Talking Heads - Remain In Light'
p784
tp785
a(S'/home/josie/trans/music/Haste the Day/Burning Bridges'
p786
tp787
a(S'/home/josie/trans/music/Red Hot Chili Peppers/Blood Sugar Sex Magik'
p788
tp789
a(S'/home/josie/downloads/american_poetry_club'
p790
tp791
a(S'/home/josie/trans/music/The Cardboard Swords/Remnants EP'
p792
tp793
a(S'/home/josie/trans/music/Defeater/Travels'
p794
tp795
a(S'/home/josie/trans/music/Cloakroom/Further Out'
p796
tp797
a(S'/home/josie/IV'
p798
tp799
a(S'/home/josie/trans/music/Sum 41/Chuck'
p800
tp801
a(S'/home/josie/trans/music/Underoath/Theyre Only Chasing Safety'
p802
tp803
a(S'/home/josie/trans/music/We Came as Romans/To Plant a Seed'
p804
tp805
a(S'/home/josie/trans/music/Empire! Empire! (I Was a Lonely Estate)/You Will Eventually Be Forgotten'
p806
tp807
a(S'/home/josie/slowly-slowly/chamomile'
p808
tp809
a(S'/tmp/tmpo6hIh_/Balance and Composure - Light We Made [2016]'
p810
tp811
a(S'/home/josie/trans/music/Parkway Drive/Horizons'
p812
tp813
a(S'/home/josie/trans/music/Compilations/4-Way Split 314'
p814
tp815
a(S'/home/josie/trans/music/The Human Abstract/Nocturne'
p816
tp817
a(S'/home/josie/downloads/marching-church/telling-it-like-it-is'
p818
tp819
a(S'/home/josie/trans/music/gates/Bloom and Breathe'
p820
tp821
a(S'/home/josie/trans/music/The Menzingers/Mixed Signals'
p822
tp823
a(S'/home/josie/trans/music/Tenement/Napalm Dream'
p824
tp825
a(S'/home/josie/trans/music/The Story So Far/While You Were Sleeping'
p826
tp827
a(S'/home/josie/trans/music/Death Cab for Cutie/Transatlanticism'
p828
tp829
a(S'/home/josie/downloads/hazel_english/Never Going Home.mp3'
p830
tp831
a(S'/home/josie/trans/music/Grammer/Awesome Knifes'
p832
tp833
a(S'/home/josie/trans/music/blink182/Take Off Your Pants and Jacket'
p834
tp835
a(S'/home/josie/trans/music/Citizen/Youth'
p836
tp837
a(S'/home/josie/trans/music/Wavves  Cloud Nothings/No Life for Me'
p838
tp839
a(S'/home/josie/trans/music/Title Fight/Spring Songs'
p840
tp841
a(S'/home/josie/torrents/Angel Olsen - Burn Your Fire For No Witness 2014 320kbps CBR MP3 [VX] [P2PDL]'
p842
tp843
a(S'/home/josie/trans/music/Joyce Manor/Ew Gross'
p844
tp845
a(S'/home/josie/trans/music/Nothing/Guilty of Everything'
p846
tp847
a(S'/home/josie/trans/music/Joyce Manor/Of All Things I Will Soon Grow Tired'
p848
tp849
a(S'/home/josie/trans/music/Burden of a Day/Blessed Be Our Ever After'
p850
tp851
a(S'/home/josie/trans/music/Hemingway/Pretend To Care'
p852
tp853
a(S'/home/josie/ceres/selfish-prick'
p854
tp855
a(S'/home/josie/torrents/Joy division - Closer'
p856
tp857
a(S'/home/josie/trans/music/Brand New/Fight Off Your Demons'
p858
tp859
a(S'/home/josie/trans/music/Non-Album/mewithoutYou'
p860
tp861
a(S'/home/josie/trans/music/Rainer Maria/Look Now Look Again'
p862
tp863
a(S'/tmp/tmpXujqZT/protomartyr'
p864
tp865
a(S'/home/josie/downloads/forth-wanderers/slop'
p866
tp867
a(S'/home/josie/trans/music/Sum 41/All Killer No Filler'
p868
tp869
a(S'/home/josie/torrents/Angel Olsen - My Woman (2016) [MP3~320Kbps]~[Hunter] [FRG]/Angel Olsen - My Woman (2016) [320]'
p870
tp871
a(S'/home/josie/trans/music/Speedy Ortiz/Major Arcana'
p872
tp873
a(S'/home/josie/trans/music/Motion City Soundtrack/My Dinosaur Life'
p874
tp875
a(S'/home/josie/trans/music/Koji/Some Small Way'
p876
tp877
a(S'/home/josie/trans/music/Pierce the Veil/Selfish Machines'
p878
tp879
a(S'/home/josie/trans/music/Funeral for a Friend/Casually Dressed & Deep in Conversation'
p880
tp881
a(S'/home/josie/trans/music/Forth Wanderers/Mahogany'
p882
tp883
a(S'/home/josie/trans/music/Royal Headache/High'
p884
tp885
a(S'/home/josie/trans/music/I Kill Giants/No One Will Ever Leave You'
p886
tp887
a(S'/home/josie/trans/music/Joyce Manor/Never Hungover Again'
p888
tp889
a(S'/home/josie/trans/music/Captain, Were Sinking/The Future Is Cancelled'
p890
tp891
a(S'/home/josie/trans/music/Ivy League TX/4-Way Split'
p892
tp893
a(S'/home/josie/trans/music/Bright Eyes/Fevers and Mirrors'
p894
tp895
a(S'/home/josie/trans/music/Lucy Rose/Like I Used To'
p896
tp897
a(S'/home/josie/downloads/torrents/The Magnetic Fields - 69 Love Songs/01. 69 Love Songs - Volume One'
p898
tp899
a(S'/home/josie/trans/music/Deafheaven/Sunbather'
p900
tp901
a(S'/home/josie/trans/music/New Found Glory/Catalyst'
p902
tp903
a(S'/home/josie/brave-bird/maybe-you-no-one-else-worth-it'
p904
tp905
a(S'/home/josie/trans/music/Dikembe/Broad Shoulders'
p906
tp907
a(S'/home/josie/downloads/ovlov/am'
p908
tp909
a(S'/home/josie/trans/music/Into It. Over It_/Standards'
p910
tp911
a(S'/home/josie/trans/music/Senses Fail/Let It Enfold You'
p912
tp913
a(S'/home/josie/trans/music/Crying/Get Olde Second Wind'
p914
tp915
a(S'/home/josie/trans/music/I Set My Friends on Fire/Astral Rejection'
p916
tp917
a(S'/home/josie/trans/music/Pianos Become the Teeth/Old Pride'
p918
tp919
a(S'/tmp/tmpNCHYxq/Alex G - Bobby'
p920
tp921
a(S'/home/josie/trans/music/Whirr _ Nothing/Whirr _ Nothing'
p922
tp923
a(S'/home/josie/trans/music/Compilations/4-Way Split'
p924
tp925
a(S"/home/josie/trans/music/Modern Baseball/You're Gonna Miss It All"
p926
tp927
a(S'/home/josie/trans/music/Waxahatchee/Cerulean Salt'
p928
tp929
a(S'/home/josie/trans/music/Brand New/Daisy'
p930
tp931
a(S'/home/josie/trans/music/In Fear and Faith/Your World on Fire'
p932
tp933
a(S'/home/josie/trans/music/Warpaint/Warpaint'
p934
tp935
a(S'/home/josie/trans/music/Cloakroom/Lossed Over'
p936
tp937
a(S'/home/josie/downloads/hazel_english/Hazel English - Control.mp3'
p938
tp939
a(S'/home/josie/trans/music/Courtney Barnett/Sometimes I Sit And Think, And Sometimes I Just Sit'
p940
tp941
a(S'/home/josie/downloads/slothrust/everyone-else'
p942
tp943
a(S'/home/josie/trans/music/I the Mighty/Satori'
p944
tp945
a(S'/home/josie/trans/music/Mansions/Dig Up the Dead'
p946
tp947
a(S'/home/josie/sorority-noise/youre-not-as-_____-as-you-think'
p948
tp949
a(S'/home/josie/bread-pilot/bread-pilot'
p950
tp951
a(S'/home/josie/trans/music/blink182/Cheshire Cat'
p952
tp953
a(S'/home/josie/trans/music/Minus the Bear/OMNI'
p954
tp955
a(S'/home/josie/trans/music/The Stoop/Outlines'
p956
tp957
a(S'/home/josie/trans/music/Defeater/Letters Home'
p958
tp959
a(S'/home/josie/trans/music/Kendrick Lamar/Section.80'
p960
tp961
a(S'/home/josie/trans/music/The Hotelier/Home, Like Noplace Is There'
p962
tp963
a(S'/home/josie/trans/music/A Day to Remember/Homesick'
p964
tp965
a(S'/home/josie/trans/music/Wild Ones/Keep It Safe'
p966
tp967
a(S'/home/josie/trans/music/Make Do and Mend _ Touch Amor/Make Do and Mend _ Touch Amor 384'
p968
tp969
a(S'/home/josie/downloads/surf-curse/sad-boys-ep'
p970
tp971
a(S'/home/josie/trans/music/I See Stars/3D'
p972
tp973
a(S'/home/josie/trans/music/Turnover/Blue Dream'
p974
tp975
a(S"/home/josie/trans/music/The Brave Little Abacus/Just Got Back From the Discomfort-We're Alright"
p976
tp977
a(S'/home/josie/trans/music/Mat Kerekes/Off The Board'
p978
tp979
a(S'/home/josie/trans/music/Brand New'
p980
tp981
a(S'/home/josie/trans/music/The Front Bottoms/Back on Top'
p982
tp983
a(S'/home/josie/downloads/all-get-out/nobody-likes-a-quitter'
p984
tp985
a(S'/tmp/tmpn81zl2/Joyce Manor - Toys That Kill (split) (2014)'
p986
tp987
a(S'/home/josie/trans/music/Daytrader/Mixed Signals'
p988
tp989
a(S'/home/josie/trans/music/Bleachers/Strange Desire'
p990
tp991
a(S'/home/josie/downloads/torrents/I Forget Where We Are (2014)'
p992
tp993
a(S'/home/josie/trans/music/blink182/Dogs Eating Dogs'
p994
tp995
a(S'/home/josie/trans/music/Yeehaw!/Demotivational Speaker'
p996
tp997
a(S'/home/josie/trans/music/La Dispute/Here, Hear_'
p998
tp999
a(S'/home/josie/trans/music/Secret Stuff/This Is Fine'
p1000
tp1001
a(S'/home/josie/trans/music/The Smiths/The Queen Is Dead'
p1002
tp1003
a(S'/home/josie/trans/music/Fugazi/Repeater'
p1004
tp1005
a(S'/home/josie/trans/music/Touch Amor/Touch Amor'
p1006
tp1007
a(S'/home/josie/trans/music/PUP/The Dream Is Over'
p1008
tp1009
a(S'/home/josie/trans/music/The Smiths/The Smiths'
p1010
tp1011
a(S'/home/josie/downloads/torrents/The Pixies - Doolittle'
p1012
tp1013
a(S'/home/josie/trans/music/+44/When Your Heart Stops Beating'
p1014
tp1015
a(S'/home/josie/the-football-club/songs-about-friends'
p1016
tp1017
a(S'/home/josie/trans/music/mewithoutYou/Pale Horses'
p1018
tp1019
a(S'/home/josie/trans/music/Departures/Teenage Haze'
p1020
tp1021
a(S'/home/josie/trans/music/Foxing/The Albatross'
p1022
tp1023
a(S'/home/josie/What if I go.mp3'
p1024
tp1025
a(S'/home/josie/trans/music/La Dispute/Here, Hear, Volume 2'
p1026
tp1027
a(S'/home/josie/trans/music/The Front Bottoms/Rose'
p1028
tp1029
a(S'/home/josie/trans/music/Have Mercy/A Place of Our Own'
p1030
tp1031
a(S'/home/josie/trans/music/Gleemer/Moving Away'
p1032
tp1033
a(S'/home/josie/trans/music/Seahaven/Silhouette (Latin Skin)'
p1034
tp1035
a(S'/home/josie/trans/music/Father Figure/People Leave'
p1036
tp1037
a(S'/home/josie/trans/music/The Chariot/The Fiance'
p1038
tp1039
a(S'/home/josie/trans/music/The Casket Lottery/Touch Amore _ The Casket Lottery Split'
p1040
tp1041
a(S'/home/josie/it-looks-sad/kaiju'
p1042
tp1043
a(S'/home/josie/trans/music/Turnover/Magnolia'
p1044
tp1045
a(S'/home/josie/trans/music/Donovan Wolfington/Scary Stories You Tell In The Dark'
p1046
tp1047
a(S'/home/josie/trans/music/Motion City Soundtrack/Commit This to Memory'
p1048
tp1049
a(S'/home/josie/trans/music/Rise Against _ face to face/Rise Against _ face to face'
p1050
tp1051
a(S'/home/josie/trans/music/Underoath/The Changing of Times'
p1052
tp1053
a(S'/home/josie/trans/music/Close to Home/Never Back Down'
p1054
tp1055
a(S'/home/josie/trans/music/Elder Brother/Heavy Head'
p1056
tp1057
a(S'/home/josie/trans/music/Cloakroom/Infinity'
p1058
tp1059
a(S'/home/josie/trans/music/Summer Vacation _ Joyce Manor/Summer Vacation _ Joyce Manor 322'
p1060
tp1061
a(S'/home/josie/trans/music/Fazerdaze'
p1062
tp1063
a(S'/home/josie/trans/music/The Story So Far/The Story So Far'
p1064
tp1065
a(S'/home/josie/trans/music/Bring Me the Horizon/Suicide Season'
p1066
tp1067
a(S'/home/josie/downloads/smashing_pumpkins'
p1068
tp1069
a(S'/home/josie/trans/music/The Smiths/Louder Than Bombs'
p1070
tp1071
a(S'/home/josie/trans/music/Broadway/Kingdoms'
p1072
tp1073
a(S'/home/josie/trans/music/CLIQUE/Burden Piece'
p1074
tp1075
a(S'/home/josie/trans/music/Rescuer/Anxiety Answering'
p1076
tp1077
a(S'/home/josie/trans/music/Compilations/4-Way Split 387'
p1078
tp1079
a(S'/home/josie/trans/music/Jawbreaker/Dear You'
p1080
tp1081
a(S'/home/josie/trans/music/La Dispute/Vancouver'
p1082
tp1083
a(S"/home/josie/trans/music/Funeral for a Friend/Tales Don't Tell Themselves"
p1084
tp1085
a(S'/home/josie/trans/music/Droughts_Frameworks_Kittyhawk_Prawn/Split'
p1086
tp1087
a(S'/home/josie/trans/music/Somos/Temple Of Plenty'
p1088
tp1089
a(S'/home/josie/trans/music/Defeater/Dear Father'
p1090
tp1091
a(S'/home/josie/trans/music/Deerhunter/Fading Frontier'
p1092
tp1093
a(S'/home/josie/the-first-loves/demos'
p1094
tp1095
a(S'/home/josie/trans/music/CSTVT/Mixed Signals'
p1096
tp1097
a(S'/home/josie/trans/music/Joy Division/Unknown Pleasures'
p1098
tp1099
a(S"/home/josie/trans/music/The Wonder Years/Won't Be Pathetic Forever"
p1100
tp1101
atp1102
Rp1103
s.